; Function Attrs: nounwind uwtable
define noundef ptr @l_String_mapAux___at_System_Uri_pathToUri___spec__1(ptr noundef %0, ptr noundef %1) local_unnamed_addr #0 {
  %3 = ptrtoint ptr %0 to i64
  %4 = and i64 %3, 1
  %.not.i4052 = icmp eq i64 %4, 0
  br i1 %.not.i4052, label %._crit_edge, label %lean_string_utf8_at_end.exit

lean_string_utf8_at_end.exit:                     ; preds = %2, %lean_dec.exit
  %5 = phi i64 [ %12, %lean_dec.exit ], [ %3, %2 ]
  %.02754 = phi ptr [ %11, %lean_dec.exit ], [ %0, %2 ]
  %.02953 = phi ptr [ %10, %lean_dec.exit ], [ %1, %2 ]
  %6 = lshr i64 %5, 1
  %7 = getelementptr i8, ptr %.02953, i64 8
  %.val.i = load i64, ptr %7, align 8, !tbaa !15
  %8 = add i64 %.val.i, -1
  %.not = icmp ult i64 %6, %8
  br i1 %.not, label %lean_dec.exit, label %.thread

lean_dec.exit:                                    ; preds = %lean_string_utf8_at_end.exit
  %9 = tail call i32 @lean_string_utf8_get(ptr noundef nonnull %.02953, ptr noundef %.02754) #3
  %.not48 = icmp eq i32 %9, 92
  %. = select i1 %.not48, i32 47, i32 %9
  %10 = tail call ptr @lean_string_utf8_set(ptr noundef nonnull %.02953, ptr noundef %.02754, i32 noundef %.) #3
  %11 = tail call ptr @lean_string_utf8_next(ptr noundef %10, ptr noundef %.02754) #3
  %12 = ptrtoint ptr %11 to i64
  %13 = and i64 %12, 1
  %.not.i40 = icmp eq i64 %13, 0
  br i1 %.not.i40, label %._crit_edge, label %lean_string_utf8_at_end.exit

._crit_edge:                                      ; preds = %lean_dec.exit, %2
  %.029.lcssa = phi ptr [ %1, %2 ], [ %10, %lean_dec.exit ]
  %.027.lcssa = phi ptr [ %0, %2 ], [ %11, %lean_dec.exit ]
  %14 = load i32, ptr %.027.lcssa, align 4, !tbaa !4
  %15 = icmp sgt i32 %14, 1
  br i1 %15, label %16, label %18, !prof !11

16:                                               ; preds = %._crit_edge
  %17 = add nsw i32 %14, -1
  store i32 %17, ptr %.027.lcssa, align 4, !tbaa !4
  br label %.thread

18:                                               ; preds = %._crit_edge
  %.not.i38 = icmp eq i32 %14, 0
  br i1 %.not.i38, label %.thread, label %19

19:                                               ; preds = %18
  tail call void @lean_dec_ref_cold(ptr noundef nonnull %.027.lcssa) #3
  br label %.thread

.thread:                                          ; preds = %lean_string_utf8_at_end.exit, %19, %18, %16
  %.02951 = phi ptr [ %.029.lcssa, %19 ], [ %.029.lcssa, %18 ], [ %.029.lcssa, %16 ], [ %.02953, %lean_string_utf8_at_end.exit ]
  ret ptr %.02951
}